target datalayout = "e-m:e-p270:32:32-p271:32:32-p272:64:64-i64:64-i128:128-f80:128-n8:16:32:64-S128"
target triple = "x86_64-pc-linux-gnu"

%struct.PaUtilHostApiRepresentation = type { %struct.PaUtilPrivatePaFrontHostApiInfo, %struct.PaHostApiInfo, ptr, ptr, ptr, ptr }
%struct.PaUtilPrivatePaFrontHostApiInfo = type { i64 }
%struct.PaHostApiInfo = type { i32, i32, ptr, i32, i32, i32 }
%struct.PaStreamParameters = type { i32, i32, i64, double, ptr }
%struct.PaDeviceInfo = type { i32, ptr, i32, i32, i32, double, double, double, double, double }

@initializationCount_ = internal global i32 0, align 4
@hostApisCount_ = internal global i32 0, align 4
@hostApis_ = internal global ptr null, align 8
@defaultHostApiIndex_ = internal global i32 0, align 4

; Function Attrs: nounwind uwtable
define internal i32 @FindHostApi(i32 noundef %0, ptr noundef %1) #0 {
  %3 = alloca i32, align 4
  %4 = alloca i32, align 4
  %5 = alloca ptr, align 8
  %6 = alloca i32, align 4
  store i32 %0, ptr %4, align 4
  store ptr %1, ptr %5, align 8
  store i32 0, ptr %6, align 4
  %7 = load i32, ptr @initializationCount_, align 4
  %8 = icmp ne i32 %7, 0
  br i1 %8, label %10, label %9

9:                                                ; preds = %2
  store i32 -1, ptr %3, align 4
  br label %58

10:                                               ; preds = %2
  %11 = load i32, ptr %4, align 4
  %12 = icmp slt i32 %11, 0
  br i1 %12, label %13, label %14

13:                                               ; preds = %10
  store i32 -1, ptr %3, align 4
  br label %58

14:                                               ; preds = %10
  br label %15

15:                                               ; preds = %32, %14
  %16 = load i32, ptr %6, align 4
  %17 = load i32, ptr @hostApisCount_, align 4
  %18 = icmp slt i32 %16, %17
  br i1 %18, label %19, label %30

19:                                               ; preds = %15
  %20 = load i32, ptr %4, align 4
  %21 = load ptr, ptr @hostApis_, align 8
  %22 = load i32, ptr %6, align 4
  %23 = sext i32 %22 to i64
  %24 = getelementptr inbounds ptr, ptr %21, i64 %23
  %25 = load ptr, ptr %24, align 8
  %26 = getelementptr inbounds nuw %struct.PaUtilHostApiRepresentation, ptr %25, i32 0, i32 1
  %27 = getelementptr inbounds nuw %struct.PaHostApiInfo, ptr %26, i32 0, i32 3
  %28 = load i32, ptr %27, align 8
  %29 = icmp sge i32 %20, %28
  br label %30

30:                                               ; preds = %19, %15
  %31 = phi i1 [ false, %15 ], [ %29, %19 ]
  br i1 %31, label %32, label %45

32:                                               ; preds = %30
  %33 = load ptr, ptr @hostApis_, align 8
  %34 = load i32, ptr %6, align 4
  %35 = sext i32 %34 to i64
  %36 = getelementptr inbounds ptr, ptr %33, i64 %35
  %37 = load ptr, ptr %36, align 8
  %38 = getelementptr inbounds nuw %struct.PaUtilHostApiRepresentation, ptr %37, i32 0, i32 1
  %39 = getelementptr inbounds nuw %struct.PaHostApiInfo, ptr %38, i32 0, i32 3
  %40 = load i32, ptr %39, align 8
  %41 = load i32, ptr %4, align 4
  %42 = sub nsw i32 %41, %40
  store i32 %42, ptr %4, align 4
  %43 = load i32, ptr %6, align 4
  %44 = add nsw i32 %43, 1
  store i32 %44, ptr %6, align 4
  br label %15, !llvm.loop !10

45:                                               ; preds = %30
  %46 = load i32, ptr %6, align 4
  %47 = load i32, ptr @hostApisCount_, align 4
  %48 = icmp sge i32 %46, %47
  br i1 %48, label %49, label %50

49:                                               ; preds = %45
  store i32 -1, ptr %3, align 4
  br label %58

50:                                               ; preds = %45
  %51 = load ptr, ptr %5, align 8
  %52 = icmp ne ptr %51, null
  br i1 %52, label %53, label %56

53:                                               ; preds = %50
  %54 = load i32, ptr %4, align 4
  %55 = load ptr, ptr %5, align 8
  store i32 %54, ptr %55, align 4
  br label %56

56:                                               ; preds = %53, %50
  %57 = load i32, ptr %6, align 4
  store i32 %57, ptr %3, align 4
  br label %58

58:                                               ; preds = %56, %49, %13, %9
  %59 = load i32, ptr %3, align 4
  ret i32 %59
}

; Function Attrs: nounwind uwtable
define i32 @Pa_GetDefaultHostApi() #0 {
  %1 = alloca i32, align 4
  %2 = load i32, ptr @initializationCount_, align 4
  %3 = icmp ne i32 %2, 0
  br i1 %3, label %5, label %4

4:                                                ; preds = %0
  store i32 -10000, ptr %1, align 4
  br label %15

5:                                                ; preds = %0
  %6 = load i32, ptr @defaultHostApiIndex_, align 4
  store i32 %6, ptr %1, align 4
  %7 = load i32, ptr %1, align 4
  %8 = icmp slt i32 %7, 0
  br i1 %8, label %13, label %9

9:                                                ; preds = %5
  %10 = load i32, ptr %1, align 4
  %11 = load i32, ptr @hostApisCount_, align 4
  %12 = icmp sge i32 %10, %11
  br i1 %12, label %13, label %14

13:                                               ; preds = %9, %5
  store i32 -9986, ptr %1, align 4
  br label %14

14:                                               ; preds = %13, %9
  br label %15

15:                                               ; preds = %14, %4
  %16 = load i32, ptr %1, align 4
  ret i32 %16
}

; Function Attrs: nounwind uwtable
define i32 @Pa_GetDefaultOutputDevice() #0 {
  %1 = alloca i32, align 4
  %2 = alloca i32, align 4
  %3 = call i32 @Pa_GetDefaultHostApi()
  store i32 %3, ptr %1, align 4
  %4 = load i32, ptr %1, align 4
  %5 = icmp slt i32 %4, 0
  br i1 %5, label %6, label %7

6:                                                ; preds = %0
  store i32 -1, ptr %2, align 4
  br label %16

7:                                                ; preds = %0
  %8 = load ptr, ptr @hostApis_, align 8
  %9 = load i32, ptr %1, align 4
  %10 = sext i32 %9 to i64
  %11 = getelementptr inbounds ptr, ptr %8, i64 %10
  %12 = load ptr, ptr %11, align 8
  %13 = getelementptr inbounds nuw %struct.PaUtilHostApiRepresentation, ptr %12, i32 0, i32 1
  %14 = getelementptr inbounds nuw %struct.PaHostApiInfo, ptr %13, i32 0, i32 5
  %15 = load i32, ptr %14, align 8
  store i32 %15, ptr %2, align 4
  br label %16

16:                                               ; preds = %7, %6
  %17 = load i32, ptr %2, align 4
  ret i32 %17
}

; Function Attrs: nounwind uwtable
define ptr @Pa_GetDeviceInfo(i32 noundef %0) #0 {
  %2 = alloca i32, align 4
  %3 = alloca i32, align 4
  %4 = alloca i32, align 4
  %5 = alloca ptr, align 8
  store i32 %0, ptr %2, align 4
  %6 = load i32, ptr %2, align 4
  %7 = call i32 @FindHostApi(i32 noundef %6, ptr noundef %3)
  store i32 %7, ptr %4, align 4
  %8 = load i32, ptr %4, align 4
  %9 = icmp slt i32 %8, 0
  br i1 %9, label %10, label %11

10:                                               ; preds = %1
  store ptr null, ptr %5, align 8
  br label %23

11:                                               ; preds = %1
  %12 = load ptr, ptr @hostApis_, align 8
  %13 = load i32, ptr %4, align 4
  %14 = sext i32 %13 to i64
  %15 = getelementptr inbounds ptr, ptr %12, i64 %14
  %16 = load ptr, ptr %15, align 8
  %17 = getelementptr inbounds nuw %struct.PaUtilHostApiRepresentation, ptr %16, i32 0, i32 2
  %18 = load ptr, ptr %17, align 8
  %19 = load i32, ptr %3, align 4
  %20 = sext i32 %19 to i64
  %21 = getelementptr inbounds ptr, ptr %18, i64 %20
  %22 = load ptr, ptr %21, align 8
  store ptr %22, ptr %5, align 8
  br label %23

23:                                               ; preds = %11, %10
  %24 = load ptr, ptr %5, align 8
  ret ptr %24
}

; Function Attrs: nounwind uwtable
define i32 @Pa_GetDefaultInputDevice() #0 {
  %1 = alloca i32, align 4
  %2 = alloca i32, align 4
  %3 = call i32 @Pa_GetDefaultHostApi()
  store i32 %3, ptr %1, align 4
  %4 = load i32, ptr %1, align 4
  %5 = icmp slt i32 %4, 0
  br i1 %5, label %6, label %7

6:                                                ; preds = %0
  store i32 -1, ptr %2, align 4
  br label %16

7:                                                ; preds = %0
  %8 = load ptr, ptr @hostApis_, align 8
  %9 = load i32, ptr %1, align 4
  %10 = sext i32 %9 to i64
  %11 = getelementptr inbounds ptr, ptr %8, i64 %10
  %12 = load ptr, ptr %11, align 8
  %13 = getelementptr inbounds nuw %struct.PaUtilHostApiRepresentation, ptr %12, i32 0, i32 1
  %14 = getelementptr inbounds nuw %struct.PaHostApiInfo, ptr %13, i32 0, i32 4
  %15 = load i32, ptr %14, align 4
  store i32 %15, ptr %2, align 4
  br label %16

16:                                               ; preds = %7, %6
  %17 = load i32, ptr %2, align 4
  ret i32 %17
}

; Function Attrs: nounwind uwtable
define i32 @Pa_OpenDefaultStream(ptr noundef %0, i32 noundef %1, i32 noundef %2, i64 noundef %3, double noundef %4, i64 noundef %5, ptr noundef %6, ptr noundef %7) #0 {
  %9 = alloca i32, align 4
  %10 = alloca ptr, align 8
  %11 = alloca i32, align 4
  %12 = alloca i32, align 4
  %13 = alloca i64, align 8
  %14 = alloca double, align 8
  %15 = alloca i64, align 8
  %16 = alloca ptr, align 8
  %17 = alloca ptr, align 8
  %18 = alloca i32, align 4
  %19 = alloca %struct.PaStreamParameters, align 8
  %20 = alloca %struct.PaStreamParameters, align 8
  %21 = alloca ptr, align 8
  %22 = alloca ptr, align 8
  store ptr %0, ptr %10, align 8
  store i32 %1, ptr %11, align 4
  store i32 %2, ptr %12, align 4
  store i64 %3, ptr %13, align 8
  store double %4, ptr %14, align 8
  store i64 %5, ptr %15, align 8
  store ptr %6, ptr %16, align 8
  store ptr %7, ptr %17, align 8
  %23 = load i32, ptr %11, align 4
  %24 = icmp sgt i32 %23, 0
  br i1 %24, label %25, label %44

25:                                               ; preds = %8
  %26 = call i32 @Pa_GetDefaultInputDevice()
  %27 = getelementptr inbounds nuw %struct.PaStreamParameters, ptr %19, i32 0, i32 0
  store i32 %26, ptr %27, align 8
  %28 = getelementptr inbounds nuw %struct.PaStreamParameters, ptr %19, i32 0, i32 0
  %29 = load i32, ptr %28, align 8
  %30 = icmp eq i32 %29, -1
  br i1 %30, label %31, label %32

31:                                               ; preds = %25
  store i32 -9985, ptr %9, align 4
  br label %78

32:                                               ; preds = %25
  %33 = load i32, ptr %11, align 4
  %34 = getelementptr inbounds nuw %struct.PaStreamParameters, ptr %19, i32 0, i32 1
  store i32 %33, ptr %34, align 4
  %35 = load i64, ptr %13, align 8
  %36 = getelementptr inbounds nuw %struct.PaStreamParameters, ptr %19, i32 0, i32 2
  store i64 %35, ptr %36, align 8
  %37 = getelementptr inbounds nuw %struct.PaStreamParameters, ptr %19, i32 0, i32 0
  %38 = load i32, ptr %37, align 8
  %39 = call ptr @Pa_GetDeviceInfo(i32 noundef %38)
  %40 = getelementptr inbounds nuw %struct.PaDeviceInfo, ptr %39, i32 0, i32 7
  %41 = load double, ptr %40, align 8
  %42 = getelementptr inbounds nuw %struct.PaStreamParameters, ptr %19, i32 0, i32 3
  store double %41, ptr %42, align 8
  %43 = getelementptr inbounds nuw %struct.PaStreamParameters, ptr %19, i32 0, i32 4
  store ptr null, ptr %43, align 8
  store ptr %19, ptr %21, align 8
  br label %45

44:                                               ; preds = %8
  store ptr null, ptr %21, align 8
  br label %45

45:                                               ; preds = %44, %32
  %46 = load i32, ptr %12, align 4
  %47 = icmp sgt i32 %46, 0
  br i1 %47, label %48, label %67

48:                                               ; preds = %45
  %49 = call i32 @Pa_GetDefaultOutputDevice()
  %50 = getelementptr inbounds nuw %struct.PaStreamParameters, ptr %20, i32 0, i32 0
  store i32 %49, ptr %50, align 8
  %51 = getelementptr inbounds nuw %struct.PaStreamParameters, ptr %20, i32 0, i32 0
  %52 = load i32, ptr %51, align 8
  %53 = icmp eq i32 %52, -1
  br i1 %53, label %54, label %55

54:                                               ; preds = %48
  store i32 -9985, ptr %9, align 4
  br label %78

55:                                               ; preds = %48
  %56 = load i32, ptr %12, align 4
  %57 = getelementptr inbounds nuw %struct.PaStreamParameters, ptr %20, i32 0, i32 1
  store i32 %56, ptr %57, align 4
  %58 = load i64, ptr %13, align 8
  %59 = getelementptr inbounds nuw %struct.PaStreamParameters, ptr %20, i32 0, i32 2
  store i64 %58, ptr %59, align 8
  %60 = getelementptr inbounds nuw %struct.PaStreamParameters, ptr %20, i32 0, i32 0
  %61 = load i32, ptr %60, align 8
  %62 = call ptr @Pa_GetDeviceInfo(i32 noundef %61)
  %63 = getelementptr inbounds nuw %struct.PaDeviceInfo, ptr %62, i32 0, i32 8
  %64 = load double, ptr %63, align 8
  %65 = getelementptr inbounds nuw %struct.PaStreamParameters, ptr %20, i32 0, i32 3
  store double %64, ptr %65, align 8
  %66 = getelementptr inbounds nuw %struct.PaStreamParameters, ptr %20, i32 0, i32 4
  store ptr null, ptr %66, align 8
  store ptr %20, ptr %22, align 8
  br label %68

67:                                               ; preds = %45
  store ptr null, ptr %22, align 8
  br label %68

68:                                               ; preds = %67, %55
  %69 = load ptr, ptr %10, align 8
  %70 = load ptr, ptr %21, align 8
  %71 = load ptr, ptr %22, align 8
  %72 = load double, ptr %14, align 8
  %73 = load i64, ptr %15, align 8
  %74 = load ptr, ptr %16, align 8
  %75 = load ptr, ptr %17, align 8
  %76 = call i32 @Pa_OpenStream(ptr noundef %69, ptr noundef %70, ptr noundef %71, double noundef %72, i64 noundef %73, i64 noundef 0, ptr noundef %74, ptr noundef %75)
  store i32 %76, ptr %18, align 4
  %77 = load i32, ptr %18, align 4
  store i32 %77, ptr %9, align 4
  br label %78

78:                                               ; preds = %68, %54, %31
  %79 = load i32, ptr %9, align 4
  ret i32 %79
}