; Function Attrs: nounwind uwtable
define i32 @Pa_OpenDefaultStream(ptr noundef %0, i32 noundef %1, i32 noundef %2, i64 noundef %3, double noundef %4, i64 noundef %5, ptr noundef %6, ptr noundef %7) local_unnamed_addr #3 {
  %9 = alloca %struct.PaStreamParameters, align 8
  %10 = alloca %struct.PaStreamParameters, align 8
  %11 = icmp sgt i32 %1, 0
  br i1 %11, label %12, label %50

12:                                               ; preds = %8
  %13 = load i32, ptr @initializationCount_, align 4
  %.not.i.i = icmp eq i32 %13, 0
  br i1 %.not.i.i, label %Pa_GetDefaultInputDevice.exit.thread, label %14

14:                                               ; preds = %12
  %15 = load i32, ptr @defaultHostApiIndex_, align 4
  %16 = icmp sgt i32 %15, -1
  %17 = load i32, ptr @hostApisCount_, align 4
  %.not4.i.i = icmp slt i32 %15, %17
  %or.cond.i.i = select i1 %16, i1 %.not4.i.i, i1 false
  br i1 %or.cond.i.i, label %Pa_GetDefaultInputDevice.exit, label %Pa_GetDefaultInputDevice.exit.thread

Pa_GetDefaultInputDevice.exit:                    ; preds = %14
  %18 = load ptr, ptr @hostApis_, align 8
  %19 = zext nneg i32 %15 to i64
  %20 = getelementptr inbounds ptr, ptr %18, i64 %19
  %21 = load ptr, ptr %20, align 8
  %22 = getelementptr inbounds i8, ptr %21, i64 28
  %23 = load i32, ptr %22, align 4
  store i32 %23, ptr %9, align 8
  %24 = icmp eq i32 %23, -1
  br i1 %24, label %Pa_GetDefaultInputDevice.exit.thread, label %.preheader.i.i

.preheader.i.i:                                   ; preds = %Pa_GetDefaultInputDevice.exit
  %25 = getelementptr inbounds nuw i8, ptr %9, i64 4
  store i32 %1, ptr %25, align 4
  %26 = getelementptr inbounds nuw i8, ptr %9, i64 8
  store i64 %3, ptr %26, align 8
  %27 = icmp sgt i32 %23, -1
  tail call void @llvm.assume(i1 %27)
  %28 = icmp sgt i32 %17, 0
  tail call void @llvm.assume(i1 %28)
  %wide.trip.count.i.i = zext nneg i32 %17 to i64
  %29 = load ptr, ptr %18, align 8
  %30 = getelementptr inbounds i8, ptr %29, i64 24
  %31 = load i32, ptr %30, align 8
  %.not17.i.i41 = icmp slt i32 %23, %31
  br i1 %.not17.i.i41, label %FindHostApi.exit.i, label %.lr.ph

.lr.ph:                                           ; preds = %.preheader.i.i, %.lr.ph
  %32 = phi i32 [ %37, %.lr.ph ], [ %31, %.preheader.i.i ]
  %.01321.i.i43 = phi i32 [ %33, %.lr.ph ], [ %23, %.preheader.i.i ]
  %indvars.iv.i.i42 = phi i64 [ %indvars.iv.next.i.i, %.lr.ph ], [ 0, %.preheader.i.i ]
  %33 = sub nsw i32 %.01321.i.i43, %32
  %indvars.iv.next.i.i = add nuw nsw i64 %indvars.iv.i.i42, 1
  %exitcond.not.i.i = icmp ne i64 %indvars.iv.next.i.i, %wide.trip.count.i.i
  tail call void @llvm.assume(i1 %exitcond.not.i.i)
  %34 = getelementptr inbounds ptr, ptr %18, i64 %indvars.iv.next.i.i
  %35 = load ptr, ptr %34, align 8
  %36 = getelementptr inbounds i8, ptr %35, i64 24
  %37 = load i32, ptr %36, align 8
  %.not17.i.i = icmp slt i32 %33, %37
  br i1 %.not17.i.i, label %FindHostApi.exit.i.loopexit, label %.lr.ph

FindHostApi.exit.i.loopexit:                      ; preds = %.lr.ph
  %38 = and i64 %indvars.iv.next.i.i, 4294967295
  br label %FindHostApi.exit.i

FindHostApi.exit.i:                               ; preds = %FindHostApi.exit.i.loopexit, %.preheader.i.i
  %indvars.iv.i.i.lcssa = phi i64 [ 0, %.preheader.i.i ], [ %38, %FindHostApi.exit.i.loopexit ]
  %.01321.i.i.lcssa = phi i32 [ %23, %.preheader.i.i ], [ %33, %FindHostApi.exit.i.loopexit ]
  %39 = getelementptr inbounds ptr, ptr %18, i64 %indvars.iv.i.i.lcssa
  %40 = load ptr, ptr %39, align 8
  %41 = getelementptr inbounds nuw i8, ptr %40, i64 40
  %42 = load ptr, ptr %41, align 8
  %43 = sext i32 %.01321.i.i.lcssa to i64
  %44 = getelementptr inbounds ptr, ptr %42, i64 %43
  %45 = load ptr, ptr %44, align 8
  %46 = getelementptr inbounds nuw i8, ptr %45, i64 48
  %47 = load double, ptr %46, align 8
  %48 = getelementptr inbounds nuw i8, ptr %9, i64 16
  store double %47, ptr %48, align 8
  %49 = getelementptr inbounds nuw i8, ptr %9, i64 24
  store ptr null, ptr %49, align 8
  br label %50

50:                                               ; preds = %8, %FindHostApi.exit.i
  %.014 = phi ptr [ %9, %FindHostApi.exit.i ], [ null, %8 ]
  %51 = icmp sgt i32 %2, 0
  br i1 %51, label %52, label %90

52:                                               ; preds = %50
  %53 = load i32, ptr @initializationCount_, align 4
  %.not.i.i21 = icmp eq i32 %53, 0
  br i1 %.not.i.i21, label %Pa_GetDefaultInputDevice.exit.thread, label %54

54:                                               ; preds = %52
  %55 = load i32, ptr @defaultHostApiIndex_, align 4
  %56 = icmp sgt i32 %55, -1
  %57 = load i32, ptr @hostApisCount_, align 4
  %.not4.i.i22 = icmp slt i32 %55, %57
  %or.cond.i.i23 = select i1 %56, i1 %.not4.i.i22, i1 false
  br i1 %or.cond.i.i23, label %Pa_GetDefaultOutputDevice.exit, label %Pa_GetDefaultInputDevice.exit.thread

Pa_GetDefaultOutputDevice.exit:                   ; preds = %54
  %58 = load ptr, ptr @hostApis_, align 8
  %59 = zext nneg i32 %55 to i64
  %60 = getelementptr inbounds ptr, ptr %58, i64 %59
  %61 = load ptr, ptr %60, align 8
  %62 = getelementptr inbounds i8, ptr %61, i64 32
  %63 = load i32, ptr %62, align 8
  store i32 %63, ptr %10, align 8
  %64 = icmp eq i32 %63, -1
  br i1 %64, label %Pa_GetDefaultInputDevice.exit.thread, label %.preheader.i.i28

.preheader.i.i28:                                 ; preds = %Pa_GetDefaultOutputDevice.exit
  %65 = getelementptr inbounds nuw i8, ptr %10, i64 4
  store i32 %2, ptr %65, align 4
  %66 = getelementptr inbounds nuw i8, ptr %10, i64 8
  store i64 %3, ptr %66, align 8
  %67 = icmp sgt i32 %63, -1
  tail call void @llvm.assume(i1 %67)
  %68 = icmp sgt i32 %57, 0
  tail call void @llvm.assume(i1 %68)
  %wide.trip.count.i.i31 = zext nneg i32 %57 to i64
  %69 = load ptr, ptr %58, align 8
  %70 = getelementptr inbounds i8, ptr %69, i64 24
  %71 = load i32, ptr %70, align 8
  %.not17.i.i3445 = icmp slt i32 %63, %71
  br i1 %.not17.i.i3445, label %FindHostApi.exit.i37, label %.lr.ph48

.lr.ph48:                                         ; preds = %.preheader.i.i28, %.lr.ph48
  %72 = phi i32 [ %77, %.lr.ph48 ], [ %71, %.preheader.i.i28 ]
  %.01321.i.i3347 = phi i32 [ %73, %.lr.ph48 ], [ %63, %.preheader.i.i28 ]
  %indvars.iv.i.i3246 = phi i64 [ %indvars.iv.next.i.i35, %.lr.ph48 ], [ 0, %.preheader.i.i28 ]
  %73 = sub nsw i32 %.01321.i.i3347, %72
  %indvars.iv.next.i.i35 = add nuw nsw i64 %indvars.iv.i.i3246, 1
  %exitcond.not.i.i36 = icmp ne i64 %indvars.iv.next.i.i35, %wide.trip.count.i.i31
  tail call void @llvm.assume(i1 %exitcond.not.i.i36)
  %74 = getelementptr inbounds ptr, ptr %58, i64 %indvars.iv.next.i.i35
  %75 = load ptr, ptr %74, align 8
  %76 = getelementptr inbounds i8, ptr %75, i64 24
  %77 = load i32, ptr %76, align 8
  %.not17.i.i34 = icmp slt i32 %73, %77
  br i1 %.not17.i.i34, label %FindHostApi.exit.i37.loopexit, label %.lr.ph48

FindHostApi.exit.i37.loopexit:                    ; preds = %.lr.ph48
  %78 = and i64 %indvars.iv.next.i.i35, 4294967295
  br label %FindHostApi.exit.i37

FindHostApi.exit.i37:                             ; preds = %FindHostApi.exit.i37.loopexit, %.preheader.i.i28
  %indvars.iv.i.i32.lcssa = phi i64 [ 0, %.preheader.i.i28 ], [ %78, %FindHostApi.exit.i37.loopexit ]
  %.01321.i.i33.lcssa = phi i32 [ %63, %.preheader.i.i28 ], [ %73, %FindHostApi.exit.i37.loopexit ]
  %79 = getelementptr inbounds ptr, ptr %58, i64 %indvars.iv.i.i32.lcssa
  %80 = load ptr, ptr %79, align 8
  %81 = getelementptr inbounds nuw i8, ptr %80, i64 40
  %82 = load ptr, ptr %81, align 8
  %83 = sext i32 %.01321.i.i33.lcssa to i64
  %84 = getelementptr inbounds ptr, ptr %82, i64 %83
  %85 = load ptr, ptr %84, align 8
  %86 = getelementptr inbounds nuw i8, ptr %85, i64 56
  %87 = load double, ptr %86, align 8
  %88 = getelementptr inbounds nuw i8, ptr %10, i64 16
  store double %87, ptr %88, align 8
  %89 = getelementptr inbounds nuw i8, ptr %10, i64 24
  store ptr null, ptr %89, align 8
  br label %90

90:                                               ; preds = %50, %FindHostApi.exit.i37
  %.0 = phi ptr [ %10, %FindHostApi.exit.i37 ], [ null, %50 ]
  %91 = call i32 @Pa_OpenStream(ptr noundef %0, ptr noundef %.014, ptr noundef %.0, double noundef %4, i64 noundef %5, i64 noundef 0, ptr noundef %6, ptr noundef %7)
  br label %Pa_GetDefaultInputDevice.exit.thread

Pa_GetDefaultInputDevice.exit.thread:             ; preds = %54, %52, %14, %12, %Pa_GetDefaultOutputDevice.exit, %Pa_GetDefaultInputDevice.exit, %90
  %.015 = phi i32 [ %91, %90 ], [ -9985, %Pa_GetDefaultInputDevice.exit ], [ -9985, %Pa_GetDefaultOutputDevice.exit ], [ -9985, %12 ], [ -9985, %14 ], [ -9985, %52 ], [ -9985, %54 ]
  ret i32 %.015
}